target datalayout = "e-m:e-p270:32:32-p271:32:32-p272:64:64-i64:64-i128:128-f80:128-n8:16:32:64-S128"
target triple = "x86_64-unknown-linux-gnu"

%struct.SCSISense = type { i8, i8, i8 }

; Function Attrs: nounwind sspstrong uwtable
define dso_local i32 @scsi_build_sense_buf(ptr noundef %out_buf, i64 noundef %size, i24 %sense.coerce, i1 noundef zeroext %fixed_sense) #0 {
entry:
  %sense = alloca %struct.SCSISense, align 1
  %tmp.coerce = alloca i24, align 4
  %out_buf.addr = alloca ptr, align 8
  %size.addr = alloca i64, align 8
  %fixed_sense.addr = alloca i8, align 1
  %len = alloca i32, align 4
  %buf = alloca [18 x i8], align 16
  %_a0 = alloca i64, align 8
  %_b1 = alloca i64, align 8
  %tmp = alloca i64, align 8
  store i24 %sense.coerce, ptr %tmp.coerce, align 4
  call void @llvm.memcpy.p0.p0.i64(ptr align 1 %sense, ptr align 4 %tmp.coerce, i64 3, i1 false)
  store ptr %out_buf, ptr %out_buf.addr, align 8
  store i64 %size, ptr %size.addr, align 8
  %frombool = zext i1 %fixed_sense to i8
  store i8 %frombool, ptr %fixed_sense.addr, align 1
  call void @llvm.memset.p0.i64(ptr align 16 %buf, i8 0, i64 18, i1 false)
  %0 = load i8, ptr %fixed_sense.addr, align 1
  %tobool = trunc i8 %0 to i1
  br i1 %tobool, label %if.then, label %if.else

if.then:                                          ; preds = %entry
  %arrayidx = getelementptr [18 x i8], ptr %buf, i64 0, i64 0
  store i8 112, ptr %arrayidx, align 16
  %key = getelementptr inbounds %struct.SCSISense, ptr %sense, i32 0, i32 0
  %1 = load i8, ptr %key, align 1
  %arrayidx1 = getelementptr [18 x i8], ptr %buf, i64 0, i64 2
  store i8 %1, ptr %arrayidx1, align 2
  %arrayidx2 = getelementptr [18 x i8], ptr %buf, i64 0, i64 7
  store i8 10, ptr %arrayidx2, align 1
  %asc = getelementptr inbounds %struct.SCSISense, ptr %sense, i32 0, i32 1
  %2 = load i8, ptr %asc, align 1
  %arrayidx3 = getelementptr [18 x i8], ptr %buf, i64 0, i64 12
  store i8 %2, ptr %arrayidx3, align 4
  %ascq = getelementptr inbounds %struct.SCSISense, ptr %sense, i32 0, i32 2
  %3 = load i8, ptr %ascq, align 1
  %arrayidx4 = getelementptr [18 x i8], ptr %buf, i64 0, i64 13
  store i8 %3, ptr %arrayidx4, align 1
  store i32 18, ptr %len, align 4
  br label %if.end

if.else:                                          ; preds = %entry
  %arrayidx5 = getelementptr [18 x i8], ptr %buf, i64 0, i64 0
  store i8 114, ptr %arrayidx5, align 16
  %key6 = getelementptr inbounds %struct.SCSISense, ptr %sense, i32 0, i32 0
  %4 = load i8, ptr %key6, align 1
  %arrayidx7 = getelementptr [18 x i8], ptr %buf, i64 0, i64 1
  store i8 %4, ptr %arrayidx7, align 1
  %asc8 = getelementptr inbounds %struct.SCSISense, ptr %sense, i32 0, i32 1
  %5 = load i8, ptr %asc8, align 1
  %arrayidx9 = getelementptr [18 x i8], ptr %buf, i64 0, i64 2
  store i8 %5, ptr %arrayidx9, align 2
  %ascq10 = getelementptr inbounds %struct.SCSISense, ptr %sense, i32 0, i32 2
  %6 = load i8, ptr %ascq10, align 1
  %arrayidx11 = getelementptr [18 x i8], ptr %buf, i64 0, i64 3
  store i8 %6, ptr %arrayidx11, align 1
  store i32 8, ptr %len, align 4
  br label %if.end

if.end:                                           ; preds = %if.else, %if.then
  %7 = load i32, ptr %len, align 4
  %conv = sext i32 %7 to i64
  store i64 %conv, ptr %_a0, align 8
  %8 = load i64, ptr %size.addr, align 8
  store i64 %8, ptr %_b1, align 8
  %9 = load i64, ptr %_a0, align 8
  %10 = load i64, ptr %_b1, align 8
  %cmp = icmp ult i64 %9, %10
  br i1 %cmp, label %cond.true, label %cond.false

cond.true:                                        ; preds = %if.end
  %11 = load i64, ptr %_a0, align 8
  br label %cond.end

cond.false:                                       ; preds = %if.end
  %12 = load i64, ptr %_b1, align 8
  br label %cond.end

cond.end:                                         ; preds = %cond.false, %cond.true
  %cond = phi i64 [ %11, %cond.true ], [ %12, %cond.false ]
  store i64 %cond, ptr %tmp, align 8
  %13 = load i64, ptr %tmp, align 8
  %conv13 = trunc i64 %13 to i32
  store i32 %conv13, ptr %len, align 4
  %14 = load ptr, ptr %out_buf.addr, align 8
  %arraydecay = getelementptr inbounds [18 x i8], ptr %buf, i64 0, i64 0
  %15 = load i32, ptr %len, align 4
  %conv14 = sext i32 %15 to i64
  call void @llvm.memcpy.p0.p0.i64(ptr align 1 %14, ptr align 16 %arraydecay, i64 %conv14, i1 false)
  %16 = load i32, ptr %len, align 4
  ret i32 %16
}

; Function Attrs: nounwind sspstrong uwtable
define dso_local i32 @scsi_build_sense(ptr noundef %buf, i24 %sense.coerce) #0 {
entry:
  %sense = alloca %struct.SCSISense, align 1
  %tmp.coerce = alloca i24, align 4
  %buf.addr = alloca ptr, align 8
  %sense.coerce1 = alloca i24, align 4
  store i24 %sense.coerce, ptr %tmp.coerce, align 4
  call void @llvm.memcpy.p0.p0.i64(ptr align 1 %sense, ptr align 4 %tmp.coerce, i64 3, i1 false)
  store ptr %buf, ptr %buf.addr, align 8
  %0 = load ptr, ptr %buf.addr, align 8
  call void @llvm.memcpy.p0.p0.i64(ptr align 4 %sense.coerce1, ptr align 1 %sense, i64 3, i1 false)
  %1 = load i24, ptr %sense.coerce1, align 4
  %call = call i32 @scsi_build_sense_buf(ptr noundef %0, i64 noundef 18, i24 %1, i1 noundef zeroext true)
  ret i32 %call
}