; Function Attrs: mustprogress nofree norecurse nosync nounwind sspstrong willreturn memory(argmem: write) uwtable
define dso_local noundef i32 @scsi_build_sense(ptr noundef writeonly captures(none) initializes((0, 18)) %buf, i24 %sense.coerce) local_unnamed_addr #6 {
entry:
  %sense.sroa.0.0.extract.trunc.i = trunc i24 %sense.coerce to i8
  %sense.sroa.3.0.extract.shift.i = lshr i24 %sense.coerce, 8
  %sense.sroa.3.0.extract.trunc.i = trunc i24 %sense.sroa.3.0.extract.shift.i to i8
  %sense.sroa.5.0.extract.shift.i = lshr i24 %sense.coerce, 16
  %sense.sroa.5.0.extract.trunc.i = trunc nuw i24 %sense.sroa.5.0.extract.shift.i to i8
  store i8 112, ptr %buf, align 1
  %buf.i.sroa.5.0.buf.sroa_idx = getelementptr inbounds nuw i8, ptr %buf, i64 1
  store i8 0, ptr %buf.i.sroa.5.0.buf.sroa_idx, align 1
  %buf.i.sroa.51.0.buf.sroa_idx = getelementptr inbounds nuw i8, ptr %buf, i64 2
  store i8 %sense.sroa.0.0.extract.trunc.i, ptr %buf.i.sroa.51.0.buf.sroa_idx, align 1
  %buf.i.sroa.6.0.buf.sroa_idx = getelementptr inbounds nuw i8, ptr %buf, i64 3
  store i32 0, ptr %buf.i.sroa.6.0.buf.sroa_idx, align 1
  %buf.i.sroa.62.0.buf.sroa_idx = getelementptr inbounds nuw i8, ptr %buf, i64 7
  store i8 10, ptr %buf.i.sroa.62.0.buf.sroa_idx, align 1
  %buf.i.sroa.7.0.buf.sroa_idx = getelementptr inbounds nuw i8, ptr %buf, i64 8
  store i32 0, ptr %buf.i.sroa.7.0.buf.sroa_idx, align 1
  %buf.i.sroa.73.0.buf.sroa_idx = getelementptr inbounds nuw i8, ptr %buf, i64 12
  store i8 %sense.sroa.3.0.extract.trunc.i, ptr %buf.i.sroa.73.0.buf.sroa_idx, align 1
  %buf.i.sroa.8.0.buf.sroa_idx = getelementptr inbounds nuw i8, ptr %buf, i64 13
  store i8 %sense.sroa.5.0.extract.trunc.i, ptr %buf.i.sroa.8.0.buf.sroa_idx, align 1
  %buf.i.sroa.9.0.buf.sroa_idx = getelementptr inbounds nuw i8, ptr %buf, i64 14
  store i32 0, ptr %buf.i.sroa.9.0.buf.sroa_idx, align 1
  ret i32 18
}